; Function Attrs: mustprogress uwtable
define void @_ZNK4ofbx6Object16getLocalRotationEv(ptr dead_on_unwind noalias nocapture writable writeonly sret(%"struct.ofbx::Vec3") align 8 %0, ptr nocapture noundef nonnull readonly align 8 dereferenceable(176) %1) local_unnamed_addr #8 align 2 {
  %3 = alloca %"struct.ofbx::Vec3", align 8
  call void @llvm.memset.p0.i64(ptr noundef nonnull align 8 dereferenceable(24) %3, i8 0, i64 24, i1 false)
  %4 = getelementptr inbounds i8, ptr %1, i64 144
  %.val = load ptr, ptr %4, align 8
  %5 = getelementptr i8, ptr %.val, i64 32
  %.val.val = load ptr, ptr %5, align 8
  call fastcc void @_ZN4ofbxL19resolveVec3PropertyERKNS_6ObjectEPKcRKNS_4Vec3E(ptr dead_on_unwind noalias writable align 8 %0, ptr %.val.val, ptr noundef nonnull @.str.12, ptr noundef nonnull align 8 dereferenceable(24) %3)
  ret void
}